target datalayout = "e-m:e-p270:32:32-p271:32:32-p272:64:64-i64:64-i128:128-f80:128-n8:16:32:64-S128"
target triple = "x86_64-pc-linux-gnu"

%"class.gmx::DomDecHelper" = type { %"class.gmx::INeighborSearchSignallerClient", i64, i8, i32, %"class.std::vector", ptr, ptr, ptr, ptr, ptr, ptr, ptr, ptr, ptr, ptr, ptr, ptr, ptr, ptr, ptr }
%"class.gmx::INeighborSearchSignallerClient" = type { ptr }
%"class.std::vector" = type { %"struct.std::_Vector_base" }
%"struct.std::_Vector_base" = type { %"struct.std::_Vector_base<std::function<void ()>, std::allocator<std::function<void ()>>>::_Vector_impl" }
%"struct.std::_Vector_base<std::function<void ()>, std::allocator<std::function<void ()>>>::_Vector_impl" = type { %"struct.std::_Vector_base<std::function<void ()>, std::allocator<std::function<void ()>>>::_Vector_impl_data" }
%"struct.std::_Vector_base<std::function<void ()>, std::allocator<std::function<void ()>>>::_Vector_impl_data" = type { ptr, ptr, ptr }

; Function Attrs: mustprogress uwtable
define void @_ZN3gmx12DomDecHelper5setupEv(ptr noundef nonnull align 8 dereferenceable(168) %0) #3 align 2 {
  %2 = alloca ptr, align 8
  %3 = alloca i8, align 1
  %4 = alloca i8, align 1
  %5 = alloca ptr, align 8
  store ptr %0, ptr %2, align 8, !tbaa !4
  %6 = load ptr, ptr %2, align 8
  call void @llvm.lifetime.start.p0(i64 1, ptr %3) #18
  store i8 0, ptr %3, align 1, !tbaa !11
  call void @llvm.lifetime.start.p0(i64 1, ptr %4) #18
  store i8 1, ptr %4, align 1, !tbaa !11
  call void @llvm.lifetime.start.p0(i64 8, ptr %5) #18
  store ptr null, ptr %5, align 8, !tbaa !35
  %7 = load ptr, ptr %5, align 8, !tbaa !35
  %8 = getelementptr inbounds nuw %"class.gmx::DomDecHelper", ptr %6, i32 0, i32 5
  %9 = load ptr, ptr %8, align 8, !tbaa !62
  %10 = call noundef ptr @_ZN3gmx19StatePropagatorData10localStateEv(ptr noundef nonnull align 8 dereferenceable(632) %9)
  %11 = getelementptr inbounds nuw %"class.gmx::DomDecHelper", ptr %6, i32 0, i32 5
  %12 = load ptr, ptr %11, align 8, !tbaa !62
  %13 = call noundef ptr @_ZN3gmx19StatePropagatorData11globalStateEv(ptr noundef nonnull align 8 dereferenceable(632) %12)
  call void @_ZN3gmx12DomDecHelper15partitionSystemEbbP13gmx_wallcycleP7t_stateS4_(ptr noundef nonnull align 8 dereferenceable(168) %6, i1 noundef zeroext false, i1 noundef zeroext true, ptr noundef %7, ptr noundef %10, ptr noundef %13)
  call void @llvm.lifetime.end.p0(i64 8, ptr %5) #18
  call void @llvm.lifetime.end.p0(i64 1, ptr %4) #18
  call void @llvm.lifetime.end.p0(i64 1, ptr %3) #18
  ret void
}