; Function Attrs: mustprogress uwtable
define void @_ZN3gmx12DomDecHelper5setupEv(ptr noundef nonnull readonly align 8 captures(none) dereferenceable(168) %0) local_unnamed_addr #3 align 2 {
  %2 = getelementptr inbounds nuw i8, ptr %0, i64 48
  %3 = load ptr, ptr %2, align 8, !tbaa !50
  %4 = tail call noundef ptr @_ZN3gmx19StatePropagatorData10localStateEv(ptr noundef nonnull align 8 dereferenceable(632) %3)
  %5 = load ptr, ptr %2, align 8, !tbaa !50
  %6 = tail call noundef ptr @_ZN3gmx19StatePropagatorData11globalStateEv(ptr noundef nonnull align 8 dereferenceable(632) %5)
  tail call void @_ZN3gmx12DomDecHelper15partitionSystemEbbP13gmx_wallcycleP7t_stateS4_(ptr noundef nonnull align 8 dereferenceable(168) %0, i1 noundef zeroext false, i1 noundef zeroext true, ptr noundef null, ptr noundef %4, ptr noundef %6)
  ret void
}